(dp0
S'h'
p1
(dp2
S'loss'
p3
(lp4
F0.19087568366143173
aF0.06631835428541201
aF0.052840256589101936
aF0.04609071674533713
aF0.04204602850806095
aF0.03913890769431658
aF0.037041975807735716
aF0.03540256016316397
aF0.03398154432405356
aF0.03311727582936136
aF0.03240736919974089
aF0.03173778640302107
aF0.03116323668585024
aF0.0307460671225655
aF0.03057294179166555
aF0.030145420432702897
aF0.029953708329534836
aF0.029702967504645714
aF0.02950533569475124
aF0.029320422538478913
aF0.029119906923940127
aF0.02904610556937039
aF0.028839666560587625
aF0.02878630377172969
aF0.02852822932920938
aF0.028588790337816968
aF0.028370065103009552
aF0.028343112771017948
aF0.02815510216946376
aF0.02807962178895381
aF0.02805467930536894
aF0.027921541729027645
aF0.027832401533920588
aF0.027739438170131858
aF0.027696937591155206
aF0.02757595597774113
aF0.02748628430084039
aF0.027447858423550395
aF0.027343206995093478
aF0.02733370012639651
aF0.02725278484964443
aF0.02712693051765413
aF0.027109153736353572
aF0.027011766918265904
aF0.027022111289111833
aF0.02697634198032436
aF0.026888722801133098
aF0.026890225688687364
aF0.026808325646408233
aF0.02670882696159044
aF0.0266985196488325
aF0.026639359711193765
aF0.026630977707821243
aF0.02659109291833343
aF0.02651625886986039
aF0.026459030817706383
aF0.026426282354368672
aF0.02633157674875159
aF0.026335152283521738
aF0.026255348726454103
aF0.026235703990566867
aF0.0261809444823776
aF0.026161003812062215
aF0.026114974905487517
aF0.026069382980736005
aF0.02598876080144902
aF0.025951324756697876
aF0.025931847546406064
aF0.025910742551376913
aF0.025985149305821995
aF0.025749223771221824
aF0.025732950229454255
aF0.025702884626012716
aF0.02563367201424416
aF0.0256197155112217
aF0.025506686899241644
asS'val_loss'
p5
(lp6
F0.09528552688173386
aF0.05535468425716861
aF0.049739473369157156
aF0.04289209856430674
aF0.03861135704310229
aF0.05059162938158938
aF0.03477091686853563
aF0.03399405122597847
aF0.04810322190566405
aF0.03207028911672008
aF0.031161223082943106
aF0.03083585705532827
aF0.03308415418119356
aF0.03397999570914386
aF0.031704959204667246
aF0.030414259455341167
aF0.03192999479381526
aF0.0317032407057954
aF0.030862807630280487
aF0.030382411857244905
aF0.02929780908265619
aF0.030083661403006112
aF0.02941400302918001
aF0.029281440545925283
aF0.029695548496345602
aF0.02956440234442626
aF0.028976538109733496
aF0.029666354260251927
aF0.02933156450421646
aF0.02917327354090064
aF0.02888816393479213
aF0.029335401342315992
aF0.028907762705877978
aF0.028711150133957766
aF0.0287988245908118
aF0.029886212710769196
aF0.029162056679514575
aF0.02890084889996384
aF0.029127355799936177
aF0.02848619152573178
aF0.02885812252873373
aF0.02934236606979188
aF0.028605867786287785
aF0.02936358654217058
aF0.028377016829195578
aF0.028780812319442454
aF0.028841061420128017
aF0.02839774191581771
aF0.02938350396655669
aF0.029791232763306686
aF0.028842336362291925
aF0.028507201976003635
aF0.02841301451354707
aF0.029141554565763565
aF0.028571290433173392
aF0.02900471799192201
aF0.028726116965143968
aF0.028934601323450024
aF0.028697070598613955
aF0.028594411064916322
aF0.028733451334950522
aF0.028635161592916333
aF0.02878455654711909
aF0.028613697656353302
aF0.02908619507838985
aF0.029334809097857833
aF0.028535488902505665
aF0.02865652152019284
aF0.028576648081321245
aF0.02917725582974251
aF0.028848920128764666
aF0.02852446640682313
aF0.03009799143275655
aF0.02951340868339879
aF0.029553207314734212
aF0.028651654030923644
assS'test_loss'
p7
F0.03360982561365196
s.