(dp0
S'h'
p1
(dp2
S'loss'
p3
(lp4
F0.25560150748282967
aF0.09982752998397881
aF0.07726558439854297
aF0.0646468123618317
aF0.05622509070421896
aF0.0513222638688142
aF0.04564367926895257
aF0.04309184096758941
aF0.04005892225419719
aF0.037956069388883996
aF0.03661747822289277
aF0.034983984450238814
aF0.03373670254481289
aF0.03266403535949372
aF0.03200678139425577
aF0.03136973928193278
aF0.030729891292058054
aF0.03044560074115859
aF0.029958320934987147
aF0.02968848765335577
aF0.029368736344910905
aF0.02923027270055246
aF0.02899508148258825
aF0.02883183510755915
aF0.028589103047225388
aF0.028493036870661508
aF0.028378388352291808
aF0.02822728009639919
aF0.028123315865947365
aF0.027920944172399285
aF0.027907962951761556
aF0.02777945121724001
aF0.027733598568928066
aF0.027542161846355606
aF0.02753988411712344
aF0.02749409420701423
aF0.02740449010468359
aF0.027326390381132912
aF0.027275454671373305
aF0.027233656368281033
aF0.02712761002180279
aF0.02710744308916989
aF0.027024214253136593
aF0.02700424037937388
aF0.02692702014777026
aF0.026857188118312725
aF0.026838556324225552
aF0.026744832910124132
aF0.026757749780234246
aF0.02668431034808649
aF0.02663462842648473
aF0.02662013522988155
aF0.02651502615439399
aF0.026513555685683005
aF0.02645494364057247
aF0.026407193749837955
aF0.02638832214698934
aF0.026363563653782212
aF0.0262847429153062
aF0.026217423659012334
aF0.026199535692881172
aF0.026143633091290776
aF0.02610136573817474
aF0.02607716048312707
aF0.026003648025475844
aF0.026001704597809722
aF0.02591167106589494
aF0.02585247969709096
aF0.025815722929973528
aF0.02578166100776127
aF0.025731650362690997
aF0.02572121545679704
aF0.025654202453324733
aF0.02562585937531629
aF0.02563456221257342
aF0.02542702602654944
asS'val_loss'
p5
(lp6
F0.11714120003616804
aF0.08512060858997195
aF0.06616352784996837
aF0.06410095751131062
aF0.15253822304149064
aF0.048641761648650854
aF0.03955789525525807
aF0.04066238139758939
aF0.036934204912493294
aF0.04339986409259359
aF0.03457746927611371
aF0.03332062537541898
aF0.03866972015472493
aF0.03196814550056735
aF0.030440708217524422
aF0.03029907882415452
aF0.043067595196366076
aF0.03025049123366256
aF0.03648335621599934
aF0.02945315895424053
aF0.03185701089002431
aF0.03092462735116505
aF0.02931995489904205
aF0.02937003054102736
aF0.029501348203444057
aF0.02891725419396724
aF0.029124610456712125
aF0.029781729534212997
aF0.029015039902444723
aF0.029166101110211524
aF0.03023348257626248
aF0.02936018047164193
aF0.02850237322665035
aF0.02853430424765045
aF0.028441312069581733
aF0.028676745796906017
aF0.031119442035492176
aF0.028760243256952388
aF0.030157771775458662
aF0.02864610595624611
aF0.028524299812732468
aF0.029755463177349416
aF0.0286433198571535
aF0.02927209651013851
aF0.02830240850866518
aF0.028414596024712177
aF0.028706679557353922
aF0.028469154856115023
aF0.028697373547232247
aF0.028350463759764518
aF0.0283171666747391
aF0.028560318704560907
aF0.02882809854896198
aF0.028345858192945314
aF0.028463320005318295
aF0.028458765506111358
aF0.028483247400278952
aF0.028769500226831286
aF0.028807831313567945
aF0.028638734092204028
aF0.02871309080731146
aF0.028541926843788035
aF0.02857786042173794
aF0.02914884657763969
aF0.029371027524636967
aF0.028338317150659625
aF0.028813204912497455
aF0.029076541638491025
aF0.02830803419489328
aF0.028544667860424807
aF0.028568540361859768
aF0.028749804103599563
aF0.02920309973128352
aF0.02855463842291727
aF0.028882056208454698
aF0.028849398378665615
assS'test_loss'
p7
F0.03315947257048155
s.